; Function Attrs: nounwind uwtable
define internal ptr @deque___sizeof__(ptr noundef readonly captures(none) %0, ptr readnone captures(none) %1) #0 {
  %3 = getelementptr i8, ptr %0, i64 8
  %.val5.i = load ptr, ptr %3, align 8, !tbaa !22
  %4 = getelementptr i8, ptr %.val5.i, i64 32
  %.val6.i = load i64, ptr %4, align 8, !tbaa !86
  %5 = getelementptr inbounds nuw i8, ptr %0, i64 40
  %6 = load i64, ptr %5, align 8, !tbaa !46
  %7 = getelementptr i8, ptr %0, i64 16
  %.val.i = load i64, ptr %7, align 8, !tbaa !52
  %8 = add i64 %6, 63
  %9 = add i64 %8, %.val.i
  %10 = lshr i64 %9, 6
  %11 = mul i64 %10, 528
  %12 = add i64 %11, %.val6.i
  %13 = tail call ptr @PyLong_FromSize_t(i64 noundef %12) #9
  ret ptr %13
}